target datalayout = "e-m:e-p270:32:32-p271:32:32-p272:64:64-i64:64-i128:128-f80:128-n8:16:32:64-S128"
target triple = "x86_64-pc-linux-gnu"

%struct.Nm_Man_t_ = type { ptr, ptr, i32, i32, i32, i32, ptr }

; Function Attrs: inlinehint nounwind uwtable
define internal i32 @Abc_PrimeCudd(i32 noundef %0) #4 {
  %2 = alloca i32, align 4
  %3 = alloca i32, align 4
  %4 = alloca i32, align 4
  store i32 %0, ptr %2, align 4, !tbaa !3
  call void @llvm.lifetime.start.p0(i64 4, ptr %3) #9
  call void @llvm.lifetime.start.p0(i64 4, ptr %4) #9
  %5 = load i32, ptr %2, align 4, !tbaa !3
  %6 = add i32 %5, -1
  store i32 %6, ptr %2, align 4, !tbaa !3
  br label %7

7:                                                ; preds = %32, %1
  %8 = load i32, ptr %2, align 4, !tbaa !3
  %9 = add i32 %8, 1
  store i32 %9, ptr %2, align 4, !tbaa !3
  %10 = load i32, ptr %2, align 4, !tbaa !3
  %11 = and i32 %10, 1
  %12 = icmp ne i32 %11, 0
  br i1 %12, label %13, label %30

13:                                               ; preds = %7
  store i32 1, ptr %4, align 4, !tbaa !3
  store i32 3, ptr %3, align 4, !tbaa !3
  br label %14

14:                                               ; preds = %26, %13
  %15 = load i32, ptr %3, align 4, !tbaa !3
  %16 = load i32, ptr %3, align 4, !tbaa !3
  %17 = mul nsw i32 %15, %16
  %18 = load i32, ptr %2, align 4, !tbaa !3
  %19 = icmp ule i32 %17, %18
  br i1 %19, label %20, label %29

20:                                               ; preds = %14
  %21 = load i32, ptr %2, align 4, !tbaa !3
  %22 = load i32, ptr %3, align 4, !tbaa !3
  %23 = urem i32 %21, %22
  %24 = icmp eq i32 %23, 0
  br i1 %24, label %25, label %26

25:                                               ; preds = %20
  store i32 0, ptr %4, align 4, !tbaa !3
  br label %29

26:                                               ; preds = %20
  %27 = load i32, ptr %3, align 4, !tbaa !3
  %28 = add nsw i32 %27, 2
  store i32 %28, ptr %3, align 4, !tbaa !3
  br label %14, !llvm.loop !19

29:                                               ; preds = %25, %14
  br label %31

30:                                               ; preds = %7
  store i32 0, ptr %4, align 4, !tbaa !3
  br label %31

31:                                               ; preds = %30, %29
  br label %32

32:                                               ; preds = %31
  %33 = load i32, ptr %4, align 4, !tbaa !3
  %34 = icmp ne i32 %33, 0
  %35 = xor i1 %34, true
  br i1 %35, label %7, label %36, !llvm.loop !21

36:                                               ; preds = %32
  %37 = load i32, ptr %2, align 4, !tbaa !3
  call void @llvm.lifetime.end.p0(i64 4, ptr %4) #9
  call void @llvm.lifetime.end.p0(i64 4, ptr %3) #9
  ret i32 %37
}

; Function Attrs: nounwind uwtable
define ptr @Nm_ManCreate(i32 noundef %0) #0 {
  %2 = alloca i32, align 4
  %3 = alloca ptr, align 8
  store i32 %0, ptr %2, align 4, !tbaa !3
  call void @llvm.lifetime.start.p0(i64 8, ptr %3) #9
  %4 = call noalias ptr @malloc(i64 noundef 40) #10
  store ptr %4, ptr %3, align 8, !tbaa !7
  %5 = load ptr, ptr %3, align 8, !tbaa !7
  call void @llvm.memset.p0.i64(ptr align 8 %5, i8 0, i64 40, i1 false)
  %6 = load ptr, ptr %3, align 8, !tbaa !7
  %7 = getelementptr inbounds nuw %struct.Nm_Man_t_, ptr %6, i32 0, i32 4
  store i32 2, ptr %7, align 8, !tbaa !10
  %8 = load ptr, ptr %3, align 8, !tbaa !7
  %9 = getelementptr inbounds nuw %struct.Nm_Man_t_, ptr %8, i32 0, i32 5
  store i32 3, ptr %9, align 4, !tbaa !14
  %10 = load i32, ptr %2, align 4, !tbaa !3
  %11 = call i32 @Abc_PrimeCudd(i32 noundef %10)
  %12 = load ptr, ptr %3, align 8, !tbaa !7
  %13 = getelementptr inbounds nuw %struct.Nm_Man_t_, ptr %12, i32 0, i32 2
  store i32 %11, ptr %13, align 8, !tbaa !15
  %14 = load ptr, ptr %3, align 8, !tbaa !7
  %15 = getelementptr inbounds nuw %struct.Nm_Man_t_, ptr %14, i32 0, i32 2
  %16 = load i32, ptr %15, align 8, !tbaa !15
  %17 = sext i32 %16 to i64
  %18 = mul i64 8, %17
  %19 = call noalias ptr @malloc(i64 noundef %18) #10
  %20 = load ptr, ptr %3, align 8, !tbaa !7
  %21 = getelementptr inbounds nuw %struct.Nm_Man_t_, ptr %20, i32 0, i32 0
  store ptr %19, ptr %21, align 8, !tbaa !16
  %22 = load ptr, ptr %3, align 8, !tbaa !7
  %23 = getelementptr inbounds nuw %struct.Nm_Man_t_, ptr %22, i32 0, i32 2
  %24 = load i32, ptr %23, align 8, !tbaa !15
  %25 = sext i32 %24 to i64
  %26 = mul i64 8, %25
  %27 = call noalias ptr @malloc(i64 noundef %26) #10
  %28 = load ptr, ptr %3, align 8, !tbaa !7
  %29 = getelementptr inbounds nuw %struct.Nm_Man_t_, ptr %28, i32 0, i32 1
  store ptr %27, ptr %29, align 8, !tbaa !17
  %30 = load ptr, ptr %3, align 8, !tbaa !7
  %31 = getelementptr inbounds nuw %struct.Nm_Man_t_, ptr %30, i32 0, i32 0
  %32 = load ptr, ptr %31, align 8, !tbaa !16
  %33 = load ptr, ptr %3, align 8, !tbaa !7
  %34 = getelementptr inbounds nuw %struct.Nm_Man_t_, ptr %33, i32 0, i32 2
  %35 = load i32, ptr %34, align 8, !tbaa !15
  %36 = sext i32 %35 to i64
  %37 = mul i64 8, %36
  call void @llvm.memset.p0.i64(ptr align 8 %32, i8 0, i64 %37, i1 false)
  %38 = load ptr, ptr %3, align 8, !tbaa !7
  %39 = getelementptr inbounds nuw %struct.Nm_Man_t_, ptr %38, i32 0, i32 1
  %40 = load ptr, ptr %39, align 8, !tbaa !17
  %41 = load ptr, ptr %3, align 8, !tbaa !7
  %42 = getelementptr inbounds nuw %struct.Nm_Man_t_, ptr %41, i32 0, i32 2
  %43 = load i32, ptr %42, align 8, !tbaa !15
  %44 = sext i32 %43 to i64
  %45 = mul i64 8, %44
  call void @llvm.memset.p0.i64(ptr align 8 %40, i8 0, i64 %45, i1 false)
  %46 = call ptr (...) @Extra_MmFlexStart()
  %47 = load ptr, ptr %3, align 8, !tbaa !7
  %48 = getelementptr inbounds nuw %struct.Nm_Man_t_, ptr %47, i32 0, i32 6
  store ptr %46, ptr %48, align 8, !tbaa !18
  %49 = load ptr, ptr %3, align 8, !tbaa !7
  call void @llvm.lifetime.end.p0(i64 8, ptr %3) #9
  ret ptr %49
}