; Function Attrs: nounwind uwtable
define noalias noundef ptr @Nm_ManCreate(i32 noundef %0) local_unnamed_addr #0 {
  %calloc19 = tail call dereferenceable_or_null(40) ptr @calloc(i64 1, i64 40)
  %2 = getelementptr inbounds nuw i8, ptr %calloc19, i64 24
  store i32 2, ptr %2, align 8, !tbaa !3
  %3 = getelementptr inbounds nuw i8, ptr %calloc19, i64 28
  store i32 3, ptr %3, align 4, !tbaa !11
  %4 = add i32 %0, -1
  br label %.loopexit.i

.loopexit.i:                                      ; preds = %.loopexit.i.backedge, %1
  %.012.i = phi i32 [ %4, %1 ], [ %5, %.loopexit.i.backedge ]
  %5 = add i32 %.012.i, 1
  %6 = and i32 %.012.i, 1
  %.not.not.i = icmp eq i32 %6, 0
  br i1 %.not.not.i, label %.preheader.i, label %.loopexit.i.backedge

.loopexit.i.backedge:                             ; preds = %.lr.ph.i, %.loopexit.i
  br label %.loopexit.i, !llvm.loop !12

.preheader.i:                                     ; preds = %.loopexit.i
  %.not15.i = icmp ult i32 %5, 9
  br i1 %.not15.i, label %Abc_PrimeCudd.exit, label %.lr.ph.i

7:                                                ; preds = %.lr.ph.i
  %8 = add nuw nsw i32 %.01116.i, 2
  %9 = mul nuw nsw i32 %8, %8
  %.not.i = icmp ugt i32 %9, %5
  br i1 %.not.i, label %Abc_PrimeCudd.exit, label %.lr.ph.i, !llvm.loop !14

.lr.ph.i:                                         ; preds = %.preheader.i, %7
  %.01116.i = phi i32 [ %8, %7 ], [ 3, %.preheader.i ]
  %10 = urem i32 %5, %.01116.i
  %11 = icmp eq i32 %10, 0
  br i1 %11, label %.loopexit.i.backedge, label %7, !llvm.loop !12

Abc_PrimeCudd.exit:                               ; preds = %.preheader.i, %7
  %12 = getelementptr inbounds nuw i8, ptr %calloc19, i64 16
  store i32 %5, ptr %12, align 8, !tbaa !15
  %13 = sext i32 %5 to i64
  %14 = shl nsw i64 %13, 3
  %calloc = tail call ptr @calloc(i64 1, i64 %14)
  store ptr %calloc, ptr %calloc19, align 8, !tbaa !16
  %calloc18 = tail call ptr @calloc(i64 1, i64 %14)
  %15 = getelementptr inbounds nuw i8, ptr %calloc19, i64 8
  store ptr %calloc18, ptr %15, align 8, !tbaa !17
  %16 = tail call ptr (...) @Extra_MmFlexStart() #10
  %17 = getelementptr inbounds nuw i8, ptr %calloc19, i64 32
  store ptr %16, ptr %17, align 8, !tbaa !18
  ret ptr %calloc19
}